target datalayout = "e-m:e-p270:32:32-p271:32:32-p272:64:64-i64:64-i128:128-f80:128-n8:16:32:64-S128"
target triple = "x86_64-pc-linux-gnu"

%struct.Kit_DsdNtk_t_ = type { i16, i16, i16, i16, ptr, ptr, ptr }
%struct.Kit_DsdObj_t_ = type { i32, [0 x i16] }

; Function Attrs: inlinehint nounwind uwtable
define internal ptr @Kit_DsdNtkObj(ptr noundef %0, i32 noundef %1) #4 {
  %3 = alloca ptr, align 8
  %4 = alloca i32, align 4
  store ptr %0, ptr %3, align 8, !tbaa !37
  store i32 %1, ptr %4, align 4, !tbaa !3
  %5 = load i32, ptr %4, align 4, !tbaa !3
  %6 = load ptr, ptr %3, align 8, !tbaa !37
  %7 = getelementptr inbounds nuw %struct.Kit_DsdNtk_t_, ptr %6, i32 0, i32 0
  %8 = load i16, ptr %7, align 8, !tbaa !41
  %9 = zext i16 %8 to i32
  %10 = icmp slt i32 %5, %9
  br i1 %10, label %11, label %12

11:                                               ; preds = %2
  br label %25

12:                                               ; preds = %2
  %13 = load ptr, ptr %3, align 8, !tbaa !37
  %14 = getelementptr inbounds nuw %struct.Kit_DsdNtk_t_, ptr %13, i32 0, i32 6
  %15 = load ptr, ptr %14, align 8, !tbaa !47
  %16 = load i32, ptr %4, align 4, !tbaa !3
  %17 = load ptr, ptr %3, align 8, !tbaa !37
  %18 = getelementptr inbounds nuw %struct.Kit_DsdNtk_t_, ptr %17, i32 0, i32 0
  %19 = load i16, ptr %18, align 8, !tbaa !41
  %20 = zext i16 %19 to i32
  %21 = sub nsw i32 %16, %20
  %22 = sext i32 %21 to i64
  %23 = getelementptr inbounds ptr, ptr %15, i64 %22
  %24 = load ptr, ptr %23, align 8, !tbaa !39
  br label %25

25:                                               ; preds = %12, %11
  %26 = phi ptr [ null, %11 ], [ %24, %12 ]
  ret ptr %26
}

; Function Attrs: inlinehint nounwind uwtable
define internal i32 @Abc_Lit2Var(i32 noundef %0) #4 {
  %2 = alloca i32, align 4
  store i32 %0, ptr %2, align 4, !tbaa !3
  %3 = load i32, ptr %2, align 4, !tbaa !3
  %4 = ashr i32 %3, 1
  ret i32 %4
}

; Function Attrs: nounwind uwtable
define i32 @Kit_DsdRootNodeHasCommonVars(ptr noundef %0, ptr noundef %1) #0 {
  %3 = alloca i32, align 4
  %4 = alloca ptr, align 8
  %5 = alloca ptr, align 8
  %6 = alloca i32, align 4
  %7 = alloca i32, align 4
  %8 = alloca i32, align 4
  store ptr %0, ptr %4, align 8, !tbaa !39
  store ptr %1, ptr %5, align 8, !tbaa !39
  call void @llvm.lifetime.start.p0(i64 4, ptr %6) #9
  call void @llvm.lifetime.start.p0(i64 4, ptr %7) #9
  store i32 0, ptr %6, align 4, !tbaa !3
  br label %9

9:                                                ; preds = %57, %2
  %10 = load i32, ptr %6, align 4, !tbaa !3
  %11 = load ptr, ptr %4, align 8, !tbaa !39
  %12 = load i32, ptr %11, align 4
  %13 = lshr i32 %12, 26
  %14 = icmp ult i32 %10, %13
  br i1 %14, label %15, label %60

15:                                               ; preds = %9
  %16 = load ptr, ptr %4, align 8, !tbaa !39
  %17 = getelementptr inbounds nuw %struct.Kit_DsdObj_t_, ptr %16, i32 0, i32 1
  %18 = load i32, ptr %6, align 4, !tbaa !3
  %19 = zext i32 %18 to i64
  %20 = getelementptr inbounds nuw [0 x i16], ptr %17, i64 0, i64 %19
  %21 = load i16, ptr %20, align 2, !tbaa !58
  %22 = zext i16 %21 to i32
  %23 = call i32 @Abc_Lit2Var(i32 noundef %22)
  %24 = icmp sge i32 %23, 4
  br i1 %24, label %25, label %26

25:                                               ; preds = %15
  br label %57

26:                                               ; preds = %15
  store i32 0, ptr %7, align 4, !tbaa !3
  br label %27

27:                                               ; preds = %53, %26
  %28 = load i32, ptr %7, align 4, !tbaa !3
  %29 = load ptr, ptr %5, align 8, !tbaa !39
  %30 = load i32, ptr %29, align 4
  %31 = lshr i32 %30, 26
  %32 = icmp ult i32 %28, %31
  br i1 %32, label %33, label %56

33:                                               ; preds = %27
  %34 = load ptr, ptr %4, align 8, !tbaa !39
  %35 = getelementptr inbounds nuw %struct.Kit_DsdObj_t_, ptr %34, i32 0, i32 1
  %36 = load i32, ptr %6, align 4, !tbaa !3
  %37 = zext i32 %36 to i64
  %38 = getelementptr inbounds nuw [0 x i16], ptr %35, i64 0, i64 %37
  %39 = load i16, ptr %38, align 2, !tbaa !58
  %40 = zext i16 %39 to i32
  %41 = call i32 @Abc_Lit2Var(i32 noundef %40)
  %42 = load ptr, ptr %5, align 8, !tbaa !39
  %43 = getelementptr inbounds nuw %struct.Kit_DsdObj_t_, ptr %42, i32 0, i32 1
  %44 = load i32, ptr %7, align 4, !tbaa !3
  %45 = zext i32 %44 to i64
  %46 = getelementptr inbounds nuw [0 x i16], ptr %43, i64 0, i64 %45
  %47 = load i16, ptr %46, align 2, !tbaa !58
  %48 = zext i16 %47 to i32
  %49 = call i32 @Abc_Lit2Var(i32 noundef %48)
  %50 = icmp eq i32 %41, %49
  br i1 %50, label %51, label %52

51:                                               ; preds = %33
  store i32 1, ptr %3, align 4
  store i32 1, ptr %8, align 4
  br label %61

52:                                               ; preds = %33
  br label %53

53:                                               ; preds = %52
  %54 = load i32, ptr %7, align 4, !tbaa !3
  %55 = add i32 %54, 1
  store i32 %55, ptr %7, align 4, !tbaa !3
  br label %27, !llvm.loop !125

56:                                               ; preds = %27
  br label %57

57:                                               ; preds = %56, %25
  %58 = load i32, ptr %6, align 4, !tbaa !3
  %59 = add i32 %58, 1
  store i32 %59, ptr %6, align 4, !tbaa !3
  br label %9, !llvm.loop !126

60:                                               ; preds = %9
  store i32 0, ptr %3, align 4
  store i32 1, ptr %8, align 4
  br label %61

61:                                               ; preds = %60, %51
  call void @llvm.lifetime.end.p0(i64 4, ptr %7) #9
  call void @llvm.lifetime.end.p0(i64 4, ptr %6) #9
  %62 = load i32, ptr %3, align 4
  ret i32 %62
}

; Function Attrs: inlinehint nounwind uwtable
define internal ptr @Kit_DsdNtkRoot(ptr noundef %0) #4 {
  %2 = alloca ptr, align 8
  store ptr %0, ptr %2, align 8, !tbaa !37
  %3 = load ptr, ptr %2, align 8, !tbaa !37
  %4 = load ptr, ptr %2, align 8, !tbaa !37
  %5 = getelementptr inbounds nuw %struct.Kit_DsdNtk_t_, ptr %4, i32 0, i32 3
  %6 = load i16, ptr %5, align 2, !tbaa !60
  %7 = zext i16 %6 to i32
  %8 = call i32 @Abc_Lit2Var(i32 noundef %7)
  %9 = call ptr @Kit_DsdNtkObj(ptr noundef %3, i32 noundef %8)
  ret ptr %9
}

; Function Attrs: nounwind uwtable
define i32 @Kit_DsdFindLargeBox(ptr noundef %0, i32 noundef %1) #0 {
  %3 = alloca ptr, align 8
  %4 = alloca i32, align 4
  store ptr %0, ptr %3, align 8, !tbaa !37
  store i32 %1, ptr %4, align 4, !tbaa !3
  %5 = load ptr, ptr %3, align 8, !tbaa !37
  %6 = load ptr, ptr %3, align 8, !tbaa !37
  %7 = getelementptr inbounds nuw %struct.Kit_DsdNtk_t_, ptr %6, i32 0, i32 3
  %8 = load i16, ptr %7, align 2, !tbaa !60
  %9 = zext i16 %8 to i32
  %10 = call i32 @Abc_Lit2Var(i32 noundef %9)
  %11 = load i32, ptr %4, align 4, !tbaa !3
  %12 = call i32 @Kit_DsdFindLargeBox_rec(ptr noundef %5, i32 noundef %10, i32 noundef %11)
  ret i32 %12
}

; Function Attrs: nounwind uwtable
define i32 @Kit_DsdCheckVar4Dec2(ptr noundef %0, ptr noundef %1) #0 {
  %3 = alloca i32, align 4
  %4 = alloca ptr, align 8
  %5 = alloca ptr, align 8
  store ptr %0, ptr %4, align 8, !tbaa !37
  store ptr %1, ptr %5, align 8, !tbaa !37
  %6 = load ptr, ptr %4, align 8, !tbaa !37
  %7 = call i32 @Kit_DsdFindLargeBox(ptr noundef %6, i32 noundef 2)
  %8 = icmp ne i32 %7, 0
  br i1 %8, label %9, label %10

9:                                                ; preds = %2
  store i32 0, ptr %3, align 4
  br label %21

10:                                               ; preds = %2
  %11 = load ptr, ptr %5, align 8, !tbaa !37
  %12 = call i32 @Kit_DsdFindLargeBox(ptr noundef %11, i32 noundef 2)
  %13 = icmp ne i32 %12, 0
  br i1 %13, label %14, label %15

14:                                               ; preds = %10
  store i32 0, ptr %3, align 4
  br label %21

15:                                               ; preds = %10
  %16 = load ptr, ptr %4, align 8, !tbaa !37
  %17 = call ptr @Kit_DsdNtkRoot(ptr noundef %16)
  %18 = load ptr, ptr %5, align 8, !tbaa !37
  %19 = call ptr @Kit_DsdNtkRoot(ptr noundef %18)
  %20 = call i32 @Kit_DsdRootNodeHasCommonVars(ptr noundef %17, ptr noundef %19)
  store i32 %20, ptr %3, align 4
  br label %21

21:                                               ; preds = %15, %14, %9
  %22 = load i32, ptr %3, align 4
  ret i32 %22
}