; Function Attrs: nofree nosync nounwind memory(read, inaccessiblemem: none) uwtable
define range(i32 0, 2) i32 @Kit_DsdCheckVar4Dec2(ptr noundef readonly captures(none) %0, ptr noundef readonly captures(none) %1) local_unnamed_addr #17 {
  %3 = getelementptr inbounds nuw i8, ptr %0, i64 6
  %4 = load i16, ptr %3, align 2, !tbaa !51
  %5 = lshr i16 %4, 1
  %6 = zext nneg i16 %5 to i32
  %7 = tail call range(i32 0, 2) i32 @Kit_DsdFindLargeBox_rec(ptr noundef readonly %0, i32 noundef %6, i32 noundef 2)
  %.not = icmp eq i32 %7, 0
  br i1 %.not, label %8, label %Kit_DsdRootNodeHasCommonVars.exit

8:                                                ; preds = %2
  %9 = getelementptr inbounds nuw i8, ptr %1, i64 6
  %10 = load i16, ptr %9, align 2, !tbaa !51
  %11 = lshr i16 %10, 1
  %12 = zext nneg i16 %11 to i32
  %13 = tail call range(i32 0, 2) i32 @Kit_DsdFindLargeBox_rec(ptr noundef readonly %1, i32 noundef %12, i32 noundef 2)
  %.not4 = icmp eq i32 %13, 0
  br i1 %.not4, label %14, label %Kit_DsdRootNodeHasCommonVars.exit

14:                                               ; preds = %8
  %15 = load i16, ptr %0, align 8, !tbaa !34
  %16 = icmp ult i16 %5, %15
  br i1 %16, label %Kit_DsdNtkRoot.exit, label %17

17:                                               ; preds = %14
  %18 = getelementptr inbounds nuw i8, ptr %0, i64 24
  %19 = load ptr, ptr %18, align 8, !tbaa !40
  %narrow.i = sub nuw nsw i16 %5, %15
  %20 = zext nneg i16 %narrow.i to i64
  %21 = getelementptr inbounds nuw ptr, ptr %19, i64 %20
  %22 = load ptr, ptr %21, align 8, !tbaa !41
  br label %Kit_DsdNtkRoot.exit

Kit_DsdNtkRoot.exit:                              ; preds = %14, %17
  %23 = phi ptr [ %22, %17 ], [ null, %14 ]
  %24 = load i16, ptr %1, align 8, !tbaa !34
  %25 = icmp ult i16 %11, %24
  br i1 %25, label %Kit_DsdNtkRoot.exit6, label %26

26:                                               ; preds = %Kit_DsdNtkRoot.exit
  %27 = getelementptr inbounds nuw i8, ptr %1, i64 24
  %28 = load ptr, ptr %27, align 8, !tbaa !40
  %narrow.i5 = sub nuw nsw i16 %11, %24
  %29 = zext nneg i16 %narrow.i5 to i64
  %30 = getelementptr inbounds nuw ptr, ptr %28, i64 %29
  %31 = load ptr, ptr %30, align 8, !tbaa !41
  br label %Kit_DsdNtkRoot.exit6

Kit_DsdNtkRoot.exit6:                             ; preds = %Kit_DsdNtkRoot.exit, %26
  %32 = phi ptr [ %31, %26 ], [ null, %Kit_DsdNtkRoot.exit ]
  %33 = load i32, ptr %23, align 4
  %.not.i = icmp ult i32 %33, 67108864
  br i1 %.not.i, label %Kit_DsdRootNodeHasCommonVars.exit, label %.lr.ph18.i

.lr.ph18.i:                                       ; preds = %Kit_DsdNtkRoot.exit6
  %34 = lshr i32 %33, 26
  %35 = getelementptr inbounds nuw i8, ptr %23, i64 4
  %36 = getelementptr inbounds nuw i8, ptr %32, i64 4
  %wide.trip.count25.i = zext nneg i32 %34 to i64
  br label %37

37:                                               ; preds = %.loopexit.i, %.lr.ph18.i
  %indvars.iv22.i = phi i64 [ 0, %.lr.ph18.i ], [ %indvars.iv.next23.i, %.loopexit.i ]
  %38 = getelementptr inbounds nuw [0 x i16], ptr %35, i64 0, i64 %indvars.iv22.i
  %39 = load i16, ptr %38, align 2, !tbaa !49
  %40 = icmp ugt i16 %39, 7
  br i1 %40, label %.loopexit.i, label %.preheader.i

.preheader.i:                                     ; preds = %37
  %41 = load i32, ptr %32, align 4
  %.not19.i = icmp ult i32 %41, 67108864
  br i1 %.not19.i, label %.loopexit.i, label %.lr.ph.preheader.i

.lr.ph.preheader.i:                               ; preds = %.preheader.i
  %42 = lshr i32 %41, 26
  %wide.trip.count.i = zext nneg i32 %42 to i64
  br label %.lr.ph.i

43:                                               ; preds = %.lr.ph.i
  %indvars.iv.next.i = add nuw nsw i64 %indvars.iv.i, 1
  %exitcond.not.i = icmp eq i64 %indvars.iv.next.i, %wide.trip.count.i
  br i1 %exitcond.not.i, label %.loopexit.i, label %.lr.ph.i, !llvm.loop !114

.lr.ph.i:                                         ; preds = %43, %.lr.ph.preheader.i
  %indvars.iv.i = phi i64 [ 0, %.lr.ph.preheader.i ], [ %indvars.iv.next.i, %43 ]
  %44 = getelementptr inbounds nuw [0 x i16], ptr %36, i64 0, i64 %indvars.iv.i
  %45 = load i16, ptr %44, align 2, !tbaa !49
  %.unshifted.i = xor i16 %45, %39
  %46 = icmp ult i16 %.unshifted.i, 2
  br i1 %46, label %Kit_DsdRootNodeHasCommonVars.exit, label %43

.loopexit.i:                                      ; preds = %43, %.preheader.i, %37
  %indvars.iv.next23.i = add nuw nsw i64 %indvars.iv22.i, 1
  %exitcond26.not.i = icmp eq i64 %indvars.iv.next23.i, %wide.trip.count25.i
  br i1 %exitcond26.not.i, label %Kit_DsdRootNodeHasCommonVars.exit, label %37, !llvm.loop !115

Kit_DsdRootNodeHasCommonVars.exit:                ; preds = %.loopexit.i, %.lr.ph.i, %Kit_DsdNtkRoot.exit6, %8, %2
  %.0 = phi i32 [ 0, %2 ], [ 0, %8 ], [ 0, %Kit_DsdNtkRoot.exit6 ], [ 1, %.lr.ph.i ], [ 0, %.loopexit.i ]
  ret i32 %.0
}